target datalayout = "e-m:e-p270:32:32-p271:32:32-p272:64:64-i64:64-i128:128-f80:128-n8:16:32:64-S128"
target triple = "x86_64-pc-linux-gnu"

%struct.LodePNGColorMode = type { i32, i32, ptr, i64, i32, i32, i32, i32 }

; Function Attrs: mustprogress nounwind uwtable
define internal void @_ZL12lodepng_freePv(ptr noundef %0) #3 {
  %2 = alloca ptr, align 8
  store ptr %0, ptr %2, align 8, !tbaa !44
  %3 = load ptr, ptr %2, align 8, !tbaa !44
  call void @free(ptr noundef %3) #17
  ret void
}

; Function Attrs: mustprogress uwtable
define void @_Z21lodepng_palette_clearP16LodePNGColorMode(ptr noundef %0) #0 {
  %2 = alloca ptr, align 8
  store ptr %0, ptr %2, align 8, !tbaa !100
  %3 = load ptr, ptr %2, align 8, !tbaa !100
  %4 = getelementptr inbounds nuw %struct.LodePNGColorMode, ptr %3, i32 0, i32 2
  %5 = load ptr, ptr %4, align 8, !tbaa !110
  %6 = icmp ne ptr %5, null
  br i1 %6, label %7, label %11

7:                                                ; preds = %1
  %8 = load ptr, ptr %2, align 8, !tbaa !100
  %9 = getelementptr inbounds nuw %struct.LodePNGColorMode, ptr %8, i32 0, i32 2
  %10 = load ptr, ptr %9, align 8, !tbaa !110
  call void @_ZL12lodepng_freePv(ptr noundef %10)
  br label %11

11:                                               ; preds = %7, %1
  %12 = load ptr, ptr %2, align 8, !tbaa !100
  %13 = getelementptr inbounds nuw %struct.LodePNGColorMode, ptr %12, i32 0, i32 2
  store ptr null, ptr %13, align 8, !tbaa !110
  %14 = load ptr, ptr %2, align 8, !tbaa !100
  %15 = getelementptr inbounds nuw %struct.LodePNGColorMode, ptr %14, i32 0, i32 3
  store i64 0, ptr %15, align 8, !tbaa !111
  ret void
}

; Function Attrs: mustprogress uwtable
define void @_Z26lodepng_color_mode_cleanupP16LodePNGColorMode(ptr noundef %0) #0 {
  %2 = alloca ptr, align 8
  store ptr %0, ptr %2, align 8, !tbaa !100
  %3 = load ptr, ptr %2, align 8, !tbaa !100
  call void @_Z21lodepng_palette_clearP16LodePNGColorMode(ptr noundef %3)
  ret void
}