; Function Attrs: mustprogress nounwind willreturn uwtable
define void @_Z26lodepng_color_mode_cleanupP16LodePNGColorMode(ptr noundef captures(none) initializes((16, 24)) %0) local_unnamed_addr #11 {
  %2 = getelementptr inbounds nuw i8, ptr %0, i64 8
  %3 = load ptr, ptr %2, align 8, !tbaa !187
  %.not.i = icmp eq ptr %3, null
  br i1 %.not.i, label %_Z21lodepng_palette_clearP16LodePNGColorMode.exit, label %4

4:                                                ; preds = %1
  tail call void @free(ptr noundef nonnull %3) #28
  br label %_Z21lodepng_palette_clearP16LodePNGColorMode.exit

_Z21lodepng_palette_clearP16LodePNGColorMode.exit: ; preds = %1, %4
  tail call void @llvm.memset.p0.i64(ptr noundef nonnull align 8 dereferenceable(16) %2, i8 0, i64 16, i1 false)
  ret void
}